; Function Attrs: nounwind sspstrong uwtable
define hidden void @rb_yjit_vm_unlock(ptr noundef %0, ptr noundef readnone captures(none) %1, i32 noundef %2) local_unnamed_addr #0 {
  %4 = load ptr, ptr @ruby_single_main_ractor, align 8, !tbaa !21
  %.not.i.i = icmp eq ptr %4, null
  br i1 %.not.i.i, label %5, label %rb_vm_lock_leave.exit

5:                                                ; preds = %3
  tail call void @rb_vm_lock_leave_body(ptr noundef %0) #5
  br label %rb_vm_lock_leave.exit

rb_vm_lock_leave.exit:                            ; preds = %3, %5
  ret void
}